; ModuleID = '46/1909.c'
source_filename = "46/1909.c"
target datalayout = "e-m:e-p270:32:32-p271:32:32-p272:64:64-i64:64-f80:128-n8:16:32:64-S128"
target triple = "x86_64-pc-linux-gnu"

@.str = private unnamed_addr constant [5 x i8] c"%d%d\00", align 1
@.str.1 = private unnamed_addr constant [3 x i8] c"%d\00", align 1
@.str.2 = private unnamed_addr constant [4 x i8] c"%d\0A\00", align 1

; Function Attrs: noinline nounwind uwtable
define dso_local i32 @main(i32 %0, i8** %1) #0 {
  %3 = alloca i32, align 4
  %4 = alloca i32, align 4
  %5 = alloca i8**, align 8
  %6 = alloca i32, align 4
  %7 = alloca i32, align 4
  %8 = alloca i32, align 4
  %9 = alloca i32, align 4
  %10 = alloca i32, align 4
  %11 = alloca i32, align 4
  %12 = alloca i32, align 4
  %13 = alloca i32, align 4
  %14 = alloca [99 x [99 x i32]], align 16
  store i32 0, i32* %3, align 4
  store i32 %0, i32* %4, align 4
  store i8** %1, i8*** %5, align 8
  %15 = call i32 (i8*, ...) @__isoc99_scanf(i8* getelementptr inbounds ([5 x i8], [5 x i8]* @.str, i64 0, i64 0), i32* %6, i32* %7)
  store i32 0, i32* %8, align 4
  br label %16

16:                                               ; preds = %37, %2
  %17 = load i32, i32* %8, align 4
  %18 = load i32, i32* %6, align 4
  %19 = icmp slt i32 %17, %18
  br i1 %19, label %20, label %40

20:                                               ; preds = %16
  store i32 0, i32* %9, align 4
  br label %21

21:                                               ; preds = %33, %20
  %22 = load i32, i32* %9, align 4
  %23 = load i32, i32* %7, align 4
  %24 = icmp slt i32 %22, %23
  br i1 %24, label %25, label %36

25:                                               ; preds = %21
  %26 = load i32, i32* %8, align 4
  %27 = sext i32 %26 to i64
  %28 = getelementptr inbounds [99 x [99 x i32]], [99 x [99 x i32]]* %14, i64 0, i64 %27
  %29 = load i32, i32* %9, align 4
  %30 = sext i32 %29 to i64
  %31 = getelementptr inbounds [99 x i32], [99 x i32]* %28, i64 0, i64 %30
  %32 = call i32 (i8*, ...) @__isoc99_scanf(i8* getelementptr inbounds ([3 x i8], [3 x i8]* @.str.1, i64 0, i64 0), i32* %31)
  br label %33

33:                                               ; preds = %25
  %34 = load i32, i32* %9, align 4
  %35 = add nsw i32 %34, 1
  store i32 %35, i32* %9, align 4
  br label %21

36:                                               ; preds = %21
  br label %37

37:                                               ; preds = %36
  %38 = load i32, i32* %8, align 4
  %39 = add nsw i32 %38, 1
  store i32 %39, i32* %8, align 4
  br label %16

40:                                               ; preds = %16
  store i32 0, i32* %10, align 4
  %41 = load i32, i32* %6, align 4
  %42 = sub nsw i32 %41, 1
  store i32 %42, i32* %11, align 4
  store i32 0, i32* %12, align 4
  %43 = load i32, i32* %7, align 4
  %44 = sub nsw i32 %43, 1
  store i32 %44, i32* %13, align 4
  br label %45

45:                                               ; preds = %132, %40
  %46 = load i32, i32* %10, align 4
  %47 = load i32, i32* %11, align 4
  %48 = icmp slt i32 %46, %47
  br i1 %48, label %49, label %53

49:                                               ; preds = %45
  %50 = load i32, i32* %12, align 4
  %51 = load i32, i32* %13, align 4
  %52 = icmp slt i32 %50, %51
  br label %53

53:                                               ; preds = %49, %45
  %54 = phi i1 [ false, %45 ], [ %52, %49 ]
  br i1 %54, label %55, label %141

55:                                               ; preds = %53
  %56 = load i32, i32* %10, align 4
  store i32 %56, i32* %8, align 4
  %57 = load i32, i32* %12, align 4
  store i32 %57, i32* %9, align 4
  br label %58

58:                                               ; preds = %71, %55
  %59 = load i32, i32* %9, align 4
  %60 = load i32, i32* %13, align 4
  %61 = icmp slt i32 %59, %60
  br i1 %61, label %62, label %74

62:                                               ; preds = %58
  %63 = load i32, i32* %8, align 4
  %64 = sext i32 %63 to i64
  %65 = getelementptr inbounds [99 x [99 x i32]], [99 x [99 x i32]]* %14, i64 0, i64 %64
  %66 = load i32, i32* %9, align 4
  %67 = sext i32 %66 to i64
  %68 = getelementptr inbounds [99 x i32], [99 x i32]* %65, i64 0, i64 %67
  %69 = load i32, i32* %68, align 4
  %70 = call i32 (i8*, ...) @printf(i8* getelementptr inbounds ([4 x i8], [4 x i8]* @.str.2, i64 0, i64 0), i32 %69)
  br label %71

71:                                               ; preds = %62
  %72 = load i32, i32* %9, align 4
  %73 = add nsw i32 %72, 1
  store i32 %73, i32* %9, align 4
  br label %58

74:                                               ; preds = %58
  %75 = load i32, i32* %13, align 4
  store i32 %75, i32* %9, align 4
  %76 = load i32, i32* %10, align 4
  store i32 %76, i32* %8, align 4
  br label %77

77:                                               ; preds = %90, %74
  %78 = load i32, i32* %8, align 4
  %79 = load i32, i32* %11, align 4
  %80 = icmp slt i32 %78, %79
  br i1 %80, label %81, label %93

81:                                               ; preds = %77
  %82 = load i32, i32* %8, align 4
  %83 = sext i32 %82 to i64
  %84 = getelementptr inbounds [99 x [99 x i32]], [99 x [99 x i32]]* %14, i64 0, i64 %83
  %85 = load i32, i32* %9, align 4
  %86 = sext i32 %85 to i64
  %87 = getelementptr inbounds [99 x i32], [99 x i32]* %84, i64 0, i64 %86
  %88 = load i32, i32* %87, align 4
  %89 = call i32 (i8*, ...) @printf(i8* getelementptr inbounds ([4 x i8], [4 x i8]* @.str.2, i64 0, i64 0), i32 %88)
  br label %90

90:                                               ; preds = %81
  %91 = load i32, i32* %8, align 4
  %92 = add nsw i32 %91, 1
  store i32 %92, i32* %8, align 4
  br label %77

93:                                               ; preds = %77
  %94 = load i32, i32* %11, align 4
  store i32 %94, i32* %8, align 4
  %95 = load i32, i32* %13, align 4
  store i32 %95, i32* %9, align 4
  br label %96

96:                                               ; preds = %109, %93
  %97 = load i32, i32* %9, align 4
  %98 = load i32, i32* %12, align 4
  %99 = icmp sgt i32 %97, %98
  br i1 %99, label %100, label %112

100:                                              ; preds = %96
  %101 = load i32, i32* %8, align 4
  %102 = sext i32 %101 to i64
  %103 = getelementptr inbounds [99 x [99 x i32]], [99 x [99 x i32]]* %14, i64 0, i64 %102
  %104 = load i32, i32* %9, align 4
  %105 = sext i32 %104 to i64
  %106 = getelementptr inbounds [99 x i32], [99 x i32]* %103, i64 0, i64 %105
  %107 = load i32, i32* %106, align 4
  %108 = call i32 (i8*, ...) @printf(i8* getelementptr inbounds ([4 x i8], [4 x i8]* @.str.2, i64 0, i64 0), i32 %107)
  br label %109

109:                                              ; preds = %100
  %110 = load i32, i32* %9, align 4
  %111 = add nsw i32 %110, -1
  store i32 %111, i32* %9, align 4
  br label %96

112:                                              ; preds = %96
  %113 = load i32, i32* %12, align 4
  store i32 %113, i32* %9, align 4
  %114 = load i32, i32* %11, align 4
  store i32 %114, i32* %8, align 4
  br label %115

115:                                              ; preds = %128, %112
  %116 = load i32, i32* %8, align 4
  %117 = load i32, i32* %10, align 4
  %118 = icmp sgt i32 %116, %117
  br i1 %118, label %119, label %131

119:                                              ; preds = %115
  %120 = load i32, i32* %8, align 4
  %121 = sext i32 %120 to i64
  %122 = getelementptr inbounds [99 x [99 x i32]], [99 x [99 x i32]]* %14, i64 0, i64 %121
  %123 = load i32, i32* %9, align 4
  %124 = sext i32 %123 to i64
  %125 = getelementptr inbounds [99 x i32], [99 x i32]* %122, i64 0, i64 %124
  %126 = load i32, i32* %125, align 4
  %127 = call i32 (i8*, ...) @printf(i8* getelementptr inbounds ([4 x i8], [4 x i8]* @.str.2, i64 0, i64 0), i32 %126)
  br label %128

128:                                              ; preds = %119
  %129 = load i32, i32* %8, align 4
  %130 = add nsw i32 %129, -1
  store i32 %130, i32* %8, align 4
  br label %115

131:                                              ; preds = %115
  br label %132

132:                                              ; preds = %131
  %133 = load i32, i32* %10, align 4
  %134 = add nsw i32 %133, 1
  store i32 %134, i32* %10, align 4
  %135 = load i32, i32* %12, align 4
  %136 = add nsw i32 %135, 1
  store i32 %136, i32* %12, align 4
  %137 = load i32, i32* %11, align 4
  %138 = add nsw i32 %137, -1
  store i32 %138, i32* %11, align 4
  %139 = load i32, i32* %13, align 4
  %140 = add nsw i32 %139, -1
  store i32 %140, i32* %13, align 4
  br label %45

141:                                              ; preds = %53
  %142 = load i32, i32* %11, align 4
  %143 = load i32, i32* %10, align 4
  %144 = icmp eq i32 %142, %143
  br i1 %144, label %145, label %165

145:                                              ; preds = %141
  %146 = load i32, i32* %12, align 4
  store i32 %146, i32* %9, align 4
  %147 = load i32, i32* %11, align 4
  store i32 %147, i32* %8, align 4
  br label %148

148:                                              ; preds = %161, %145
  %149 = load i32, i32* %9, align 4
  %150 = load i32, i32* %13, align 4
  %151 = icmp sle i32 %149, %150
  br i1 %151, label %152, label %164

152:                                              ; preds = %148
  %153 = load i32, i32* %8, align 4
  %154 = sext i32 %153 to i64
  %155 = getelementptr inbounds [99 x [99 x i32]], [99 x [99 x i32]]* %14, i64 0, i64 %154
  %156 = load i32, i32* %9, align 4
  %157 = sext i32 %156 to i64
  %158 = getelementptr inbounds [99 x i32], [99 x i32]* %155, i64 0, i64 %157
  %159 = load i32, i32* %158, align 4
  %160 = call i32 (i8*, ...) @printf(i8* getelementptr inbounds ([4 x i8], [4 x i8]* @.str.2, i64 0, i64 0), i32 %159)
  br label %161

161:                                              ; preds = %152
  %162 = load i32, i32* %9, align 4
  %163 = add nsw i32 %162, 1
  store i32 %163, i32* %9, align 4
  br label %148

164:                                              ; preds = %148
  br label %190

165:                                              ; preds = %141
  %166 = load i32, i32* %13, align 4
  %167 = load i32, i32* %12, align 4
  %168 = icmp eq i32 %166, %167
  br i1 %168, label %169, label %189

169:                                              ; preds = %165
  %170 = load i32, i32* %10, align 4
  store i32 %170, i32* %8, align 4
  %171 = load i32, i32* %13, align 4
  store i32 %171, i32* %9, align 4
  br label %172

172:                                              ; preds = %185, %169
  %173 = load i32, i32* %8, align 4
  %174 = load i32, i32* %11, align 4
  %175 = icmp sle i32 %173, %174
  br i1 %175, label %176, label %188

176:                                              ; preds = %172
  %177 = load i32, i32* %8, align 4
  %178 = sext i32 %177 to i64
  %179 = getelementptr inbounds [99 x [99 x i32]], [99 x [99 x i32]]* %14, i64 0, i64 %178
  %180 = load i32, i32* %9, align 4
  %181 = sext i32 %180 to i64
  %182 = getelementptr inbounds [99 x i32], [99 x i32]* %179, i64 0, i64 %181
  %183 = load i32, i32* %182, align 4
  %184 = call i32 (i8*, ...) @printf(i8* getelementptr inbounds ([4 x i8], [4 x i8]* @.str.2, i64 0, i64 0), i32 %183)
  br label %185

185:                                              ; preds = %176
  %186 = load i32, i32* %8, align 4
  %187 = add nsw i32 %186, 1
  store i32 %187, i32* %8, align 4
  br label %172

188:                                              ; preds = %172
  br label %189

189:                                              ; preds = %188, %165
  br label %190

190:                                              ; preds = %189, %164
  ret i32 0
}

declare dso_local i32 @__isoc99_scanf(i8*, ...) #1

declare dso_local i32 @printf(i8*, ...) #1


!llvm.module.flags = !{!0}
!llvm.ident = !{!1}

!0 = !{i32 1, !"wchar_size", i32 4}
!1 = !{!"clang version 10.0.0-4ubuntu1 "}
